target datalayout = "e-m:e-p270:32:32-p271:32:32-p272:64:64-i64:64-i128:128-f80:128-n8:16:32:64-S128"
target triple = "x86_64-pc-linux-gnu"

; Function Attrs: nounwind uwtable
define internal i32 @sha512_internal_final(ptr noundef %0, ptr noundef %1, ptr noundef %2, i64 noundef %3) #0 {
  %5 = alloca i32, align 4
  %6 = alloca ptr, align 8
  %7 = alloca ptr, align 8
  %8 = alloca ptr, align 8
  %9 = alloca i64, align 8
  store ptr %0, ptr %6, align 8, !tbaa !3
  store ptr %1, ptr %7, align 8, !tbaa !9
  store ptr %2, ptr %8, align 8, !tbaa !11
  store i64 %3, ptr %9, align 8, !tbaa !13
  %10 = call i32 @ossl_prov_is_running()
  %11 = icmp ne i32 %10, 0
  br i1 %11, label %12, label %22

12:                                               ; preds = %4
  %13 = load i64, ptr %9, align 8, !tbaa !13
  %14 = icmp uge i64 %13, 64
  br i1 %14, label %15, label %22

15:                                               ; preds = %12
  %16 = load ptr, ptr %7, align 8, !tbaa !9
  %17 = load ptr, ptr %6, align 8, !tbaa !3
  %18 = call i32 @SHA512_Final(ptr noundef %16, ptr noundef %17)
  %19 = icmp ne i32 %18, 0
  br i1 %19, label %20, label %22

20:                                               ; preds = %15
  %21 = load ptr, ptr %8, align 8, !tbaa !11
  store i64 64, ptr %21, align 8, !tbaa !13
  store i32 1, ptr %5, align 4
  br label %23

22:                                               ; preds = %15, %12, %4
  store i32 0, ptr %5, align 4
  br label %23

23:                                               ; preds = %22, %20
  %24 = load i32, ptr %5, align 4
  ret i32 %24
}